; ModuleID = '14/640.c'
source_filename = "14/640.c"
target datalayout = "e-m:e-p270:32:32-p271:32:32-p272:64:64-i64:64-f80:128-n8:16:32:64-S128"
target triple = "x86_64-pc-linux-gnu"

%struct.stu = type { i64, i32, i32, i32 }

@.str = private unnamed_addr constant [3 x i8] c"%d\00", align 1
@.str.1 = private unnamed_addr constant [8 x i8] c"%ld%d%d\00", align 1
@.str.2 = private unnamed_addr constant [8 x i8] c"%ld %d\0A\00", align 1
@.str.3 = private unnamed_addr constant [2 x i8] c"\0A\00", align 1

; Function Attrs: noinline nounwind uwtable
define dso_local i32 @main() #0 {
  %1 = alloca i32, align 4
  %2 = alloca [100050 x %struct.stu], align 16
  %3 = alloca i32, align 4
  %4 = alloca i32, align 4
  %5 = alloca i32, align 4
  %6 = alloca i32, align 4
  %7 = alloca i32, align 4
  %8 = alloca i32, align 4
  %9 = alloca i64, align 8
  store i32 0, i32* %1, align 4
  %10 = call i32 (i8*, ...) @__isoc99_scanf(i8* getelementptr inbounds ([3 x i8], [3 x i8]* @.str, i64 0, i64 0), i32* %3)
  store i32 1, i32* %5, align 4
  br label %11

11:                                               ; preds = %44, %0
  %12 = load i32, i32* %5, align 4
  %13 = load i32, i32* %3, align 4
  %14 = icmp sle i32 %12, %13
  br i1 %14, label %15, label %47

15:                                               ; preds = %11
  %16 = load i32, i32* %5, align 4
  %17 = sext i32 %16 to i64
  %18 = getelementptr inbounds [100050 x %struct.stu], [100050 x %struct.stu]* %2, i64 0, i64 %17
  %19 = getelementptr inbounds %struct.stu, %struct.stu* %18, i32 0, i32 0
  %20 = load i32, i32* %5, align 4
  %21 = sext i32 %20 to i64
  %22 = getelementptr inbounds [100050 x %struct.stu], [100050 x %struct.stu]* %2, i64 0, i64 %21
  %23 = getelementptr inbounds %struct.stu, %struct.stu* %22, i32 0, i32 1
  %24 = load i32, i32* %5, align 4
  %25 = sext i32 %24 to i64
  %26 = getelementptr inbounds [100050 x %struct.stu], [100050 x %struct.stu]* %2, i64 0, i64 %25
  %27 = getelementptr inbounds %struct.stu, %struct.stu* %26, i32 0, i32 2
  %28 = call i32 (i8*, ...) @__isoc99_scanf(i8* getelementptr inbounds ([8 x i8], [8 x i8]* @.str.1, i64 0, i64 0), i64* %19, i32* %23, i32* %27)
  %29 = load i32, i32* %5, align 4
  %30 = sext i32 %29 to i64
  %31 = getelementptr inbounds [100050 x %struct.stu], [100050 x %struct.stu]* %2, i64 0, i64 %30
  %32 = getelementptr inbounds %struct.stu, %struct.stu* %31, i32 0, i32 1
  %33 = load i32, i32* %32, align 8
  %34 = load i32, i32* %5, align 4
  %35 = sext i32 %34 to i64
  %36 = getelementptr inbounds [100050 x %struct.stu], [100050 x %struct.stu]* %2, i64 0, i64 %35
  %37 = getelementptr inbounds %struct.stu, %struct.stu* %36, i32 0, i32 2
  %38 = load i32, i32* %37, align 4
  %39 = add nsw i32 %33, %38
  %40 = load i32, i32* %5, align 4
  %41 = sext i32 %40 to i64
  %42 = getelementptr inbounds [100050 x %struct.stu], [100050 x %struct.stu]* %2, i64 0, i64 %41
  %43 = getelementptr inbounds %struct.stu, %struct.stu* %42, i32 0, i32 3
  store i32 %39, i32* %43, align 8
  br label %44

44:                                               ; preds = %15
  %45 = load i32, i32* %5, align 4
  %46 = add nsw i32 %45, 1
  store i32 %46, i32* %5, align 4
  br label %11

47:                                               ; preds = %11
  store i32 1, i32* %6, align 4
  br label %48

48:                                               ; preds = %92, %47
  %49 = load i32, i32* %6, align 4
  %50 = icmp sle i32 %49, 3
  br i1 %50, label %51, label %95

51:                                               ; preds = %48
  store i32 0, i32* %8, align 4
  %52 = getelementptr inbounds [100050 x %struct.stu], [100050 x %struct.stu]* %2, i64 0, i64 0
  %53 = getelementptr inbounds %struct.stu, %struct.stu* %52, i32 0, i32 3
  store i32 0, i32* %53, align 16
  store i32 1, i32* %5, align 4
  br label %54

54:                                               ; preds = %73, %51
  %55 = load i32, i32* %5, align 4
  %56 = load i32, i32* %3, align 4
  %57 = icmp sle i32 %55, %56
  br i1 %57, label %58, label %76

58:                                               ; preds = %54
  %59 = load i32, i32* %8, align 4
  %60 = sext i32 %59 to i64
  %61 = getelementptr inbounds [100050 x %struct.stu], [100050 x %struct.stu]* %2, i64 0, i64 %60
  %62 = getelementptr inbounds %struct.stu, %struct.stu* %61, i32 0, i32 3
  %63 = load i32, i32* %62, align 8
  %64 = load i32, i32* %5, align 4
  %65 = sext i32 %64 to i64
  %66 = getelementptr inbounds [100050 x %struct.stu], [100050 x %struct.stu]* %2, i64 0, i64 %65
  %67 = getelementptr inbounds %struct.stu, %struct.stu* %66, i32 0, i32 3
  %68 = load i32, i32* %67, align 8
  %69 = icmp slt i32 %63, %68
  br i1 %69, label %70, label %72

70:                                               ; preds = %58
  %71 = load i32, i32* %5, align 4
  store i32 %71, i32* %8, align 4
  br label %72

72:                                               ; preds = %70, %58
  br label %73

73:                                               ; preds = %72
  %74 = load i32, i32* %5, align 4
  %75 = add nsw i32 %74, 1
  store i32 %75, i32* %5, align 4
  br label %54

76:                                               ; preds = %54
  %77 = load i32, i32* %8, align 4
  %78 = sext i32 %77 to i64
  %79 = getelementptr inbounds [100050 x %struct.stu], [100050 x %struct.stu]* %2, i64 0, i64 %78
  %80 = getelementptr inbounds %struct.stu, %struct.stu* %79, i32 0, i32 0
  %81 = load i64, i64* %80, align 8
  %82 = load i32, i32* %8, align 4
  %83 = sext i32 %82 to i64
  %84 = getelementptr inbounds [100050 x %struct.stu], [100050 x %struct.stu]* %2, i64 0, i64 %83
  %85 = getelementptr inbounds %struct.stu, %struct.stu* %84, i32 0, i32 3
  %86 = load i32, i32* %85, align 8
  %87 = call i32 (i8*, ...) @printf(i8* getelementptr inbounds ([8 x i8], [8 x i8]* @.str.2, i64 0, i64 0), i64 %81, i32 %86)
  %88 = load i32, i32* %8, align 4
  %89 = sext i32 %88 to i64
  %90 = getelementptr inbounds [100050 x %struct.stu], [100050 x %struct.stu]* %2, i64 0, i64 %89
  %91 = getelementptr inbounds %struct.stu, %struct.stu* %90, i32 0, i32 3
  store i32 0, i32* %91, align 8
  br label %92

92:                                               ; preds = %76
  %93 = load i32, i32* %6, align 4
  %94 = add nsw i32 %93, 1
  store i32 %94, i32* %6, align 4
  br label %48

95:                                               ; preds = %48
  %96 = call i32 (i8*, ...) @__isoc99_scanf(i8* getelementptr inbounds ([2 x i8], [2 x i8]* @.str.3, i64 0, i64 0))
  ret i32 0
}

declare dso_local i32 @__isoc99_scanf(i8*, ...) #1

declare dso_local i32 @printf(i8*, ...) #1


!llvm.module.flags = !{!0}
!llvm.ident = !{!1}

!0 = !{i32 1, !"wchar_size", i32 4}
!1 = !{!"clang version 10.0.0-4ubuntu1 "}
